; Function Attrs: mustprogress nounwind uwtable
define dso_local noundef ptr @_ZN4llvm12simplifyCallEPNS_8CallBaseEPNS_5ValueENS_8ArrayRefIS3_EERKNS_13SimplifyQueryE(ptr noundef nonnull %0, ptr noundef %1, ptr %2, i64 %3, ptr noundef nonnull align 8 dereferenceable(58) %4) local_unnamed_addr #0 {
  %6 = tail call noundef zeroext i1 @_ZNK4llvm8CallBase14isMustTailCallEv(ptr noundef nonnull align 8 dereferenceable(88) %0) #18
  br i1 %6, label %24, label %7

7:                                                ; preds = %5
  %8 = load i8, ptr %1, align 8
  switch i8 %8, label %13 [
    i8 20, label %9
    i8 13, label %9
    i8 12, label %9
  ]

9:                                                ; preds = %7, %7, %7
  %10 = getelementptr inbounds nuw i8, ptr %0, i64 8
  %11 = load ptr, ptr %10, align 8
  %12 = tail call noundef ptr @_ZN4llvm11PoisonValue3getEPNS_4TypeE(ptr noundef %11) #18
  br label %24

13:                                               ; preds = %7
  %14 = tail call fastcc noundef ptr @_ZL19tryConstantFoldCallPN4llvm8CallBaseEPNS_5ValueENS_8ArrayRefIS3_EERKNS_13SimplifyQueryE(ptr noundef nonnull %0, ptr noundef nonnull %1, ptr %2, i64 %3, ptr noundef nonnull align 8 dereferenceable(58) %4)
  %.not = icmp eq ptr %14, null
  br i1 %.not, label %15, label %24

15:                                               ; preds = %13
  %16 = load i8, ptr %1, align 8
  %.not27 = icmp eq i8 %16, 0
  br i1 %.not27, label %17, label %23

17:                                               ; preds = %15
  %18 = getelementptr inbounds nuw i8, ptr %1, i64 32
  %19 = load i32, ptr %18, align 8
  %20 = and i32 %19, 8192
  %.not28 = icmp eq i32 %20, 0
  br i1 %.not28, label %23, label %21

21:                                               ; preds = %17
  %22 = tail call fastcc noundef ptr @_ZL17simplifyIntrinsicPN4llvm8CallBaseEPNS_5ValueENS_8ArrayRefIS3_EERKNS_13SimplifyQueryE(ptr noundef nonnull %0, ptr noundef nonnull %1, ptr %2, i64 %3, ptr noundef nonnull align 8 dereferenceable(58) %4)
  %.not21 = icmp eq ptr %22, null
  br i1 %.not21, label %23, label %24

23:                                               ; preds = %21, %17, %15
  br label %24

24:                                               ; preds = %21, %13, %5, %23, %9
  %.0 = phi ptr [ %12, %9 ], [ null, %23 ], [ null, %5 ], [ %14, %13 ], [ %22, %21 ]
  ret ptr %.0
}